(dp0
S'door'
p1
(dp2
S'y'
p3
I19
sS'x'
p4
I13
ssS'level'
p5
S'02'
p6
sS'player2'
p7
(dp8
g3
I18
sg4
I27
sS'life'
p9
I5
sS'bombs'
p10
I10
ssS'player1'
p11
(dp12
g3
I1
sg4
I3
sg9
I5
sg10
I10
ssg10
(lp13
sS'murs_cassable'
p14
(lp15
(lp16
I9
aI1
aI1327
aa(lp17
I19
aI1
aI1347
aa(lp18
I21
aI1
aI1351
aa(lp19
I1
aI2
aI1369
aa(lp20
I6
aI2
aI1379
aa(lp21
I7
aI2
aI1381
aa(lp22
I8
aI2
aI1383
aa(lp23
I9
aI2
aI1385
aa(lp24
I19
aI2
aI1405
aa(lp25
I21
aI2
aI1409
aa(lp26
I27
aI2
aI1421
aa(lp27
I1
aI3
aI1427
aa(lp28
I3
aI3
aI1431
aa(lp29
I9
aI3
aI1443
aa(lp30
I19
aI3
aI1463
aa(lp31
I21
aI3
aI1467
aa(lp32
I27
aI3
aI1479
aa(lp33
I4
aI4
aI1491
aa(lp34
I5
aI4
aI1493
aa(lp35
I6
aI4
aI1495
aa(lp36
I7
aI4
aI1497
aa(lp37
I8
aI4
aI1499
aa(lp38
I9
aI4
aI1501
aa(lp39
I13
aI4
aI1509
aa(lp40
I15
aI4
aI1513
aa(lp41
I19
aI4
aI1521
aa(lp42
I20
aI4
aI1523
aa(lp43
I21
aI4
aI1525
aa(lp44
I22
aI4
aI1527
aa(lp45
I23
aI4
aI1529
aa(lp46
I24
aI4
aI1531
aa(lp47
I1
aI5
aI1543
aa(lp48
I3
aI5
aI1547
aa(lp49
I9
aI5
aI1559
aa(lp50
I19
aI5
aI1579
aa(lp51
I25
aI5
aI1591
aa(lp52
I27
aI5
aI1595
aa(lp53
I5
aI6
aI1609
aa(lp54
I9
aI6
aI1617
aa(lp55
I10
aI6
aI1619
aa(lp56
I11
aI6
aI1621
aa(lp57
I17
aI6
aI1633
aa(lp58
I18
aI6
aI1635
aa(lp59
I19
aI6
aI1637
aa(lp60
I23
aI6
aI1645
aa(lp61
I5
aI7
aI1667
aa(lp62
I23
aI7
aI1703
aa(lp63
I1
aI8
aI1717
aa(lp64
I2
aI8
aI1719
aa(lp65
I3
aI8
aI1721
aa(lp66
I4
aI8
aI1723
aa(lp67
I5
aI8
aI1725
aa(lp68
I23
aI8
aI1761
aa(lp69
I24
aI8
aI1763
aa(lp70
I25
aI8
aI1765
aa(lp71
I26
aI8
aI1767
aa(lp72
I27
aI8
aI1769
aa(lp73
I7
aI10
aI1845
aa(lp74
I8
aI10
aI1847
aa(lp75
I9
aI10
aI1849
aa(lp76
I13
aI10
aI1857
aa(lp77
I14
aI10
aI1859
aa(lp78
I15
aI10
aI1861
aa(lp79
I19
aI10
aI1869
aa(lp80
I20
aI10
aI1871
aa(lp81
I21
aI10
aI1873
aa(lp82
I1
aI11
aI1891
aa(lp83
I3
aI11
aI1895
aa(lp84
I5
aI11
aI1899
aa(lp85
I11
aI11
aI1911
aa(lp86
I17
aI11
aI1923
aa(lp87
I23
aI11
aI1935
aa(lp88
I25
aI11
aI1939
aa(lp89
I27
aI11
aI1943
aa(lp90
I1
aI12
aI1949
aa(lp91
I3
aI12
aI1953
aa(lp92
I5
aI12
aI1957
aa(lp93
I11
aI12
aI1969
aa(lp94
I17
aI12
aI1981
aa(lp95
I23
aI12
aI1993
aa(lp96
I25
aI12
aI1997
aa(lp97
I27
aI12
aI2001
aa(lp98
I3
aI13
aI2011
aa(lp99
I5
aI13
aI2015
aa(lp100
I11
aI13
aI2027
aa(lp101
I17
aI13
aI2039
aa(lp102
I23
aI13
aI2051
aa(lp103
I3
aI14
aI2069
aa(lp104
I5
aI14
aI2073
aa(lp105
I6
aI14
aI2075
aa(lp106
I7
aI14
aI2077
aa(lp107
I8
aI14
aI2079
aa(lp108
I9
aI14
aI2081
aa(lp109
I17
aI14
aI2097
aa(lp110
I18
aI14
aI2099
aa(lp111
I19
aI14
aI2101
aa(lp112
I20
aI14
aI2103
aa(lp113
I21
aI14
aI2105
aa(lp114
I23
aI14
aI2109
aa(lp115
I7
aI15
aI2135
aa(lp116
I13
aI15
aI2147
aa(lp117
I19
aI15
aI2159
aa(lp118
I7
aI16
aI2193
aa(lp119
I12
aI16
aI2203
aa(lp120
I13
aI16
aI2205
aa(lp121
I14
aI16
aI2207
aa(lp122
I19
aI16
aI2217
aa(lp123
I24
aI16
aI2227
aa(lp124
I3
aI17
aI2243
aa(lp125
I7
aI17
aI2251
aa(lp126
I19
aI17
aI2275
aa(lp127
I23
aI17
aI2283
aa(lp128
I25
aI17
aI2287
aa(lp129
I8
aI18
aI2311
aa(lp130
I9
aI18
aI2313
aa(lp131
I10
aI18
aI2315
aa(lp132
I11
aI18
aI2317
aa(lp133
I15
aI18
aI2325
aa(lp134
I16
aI18
aI2327
aa(lp135
I17
aI18
aI2329
aa(lp136
I18
aI18
aI2331
aas.